target datalayout = "e-m:e-p270:32:32-p271:32:32-p272:64:64-i64:64-i128:128-f80:128-n8:16:32:64-S128"
target triple = "x86_64-pc-linux-gnu"

; Function Attrs: nounwind uwtable
define void @png_info_init_3(ptr noundef %0, i64 noundef %1) #0 {
  %3 = alloca ptr, align 8
  %4 = alloca i64, align 8
  %5 = alloca ptr, align 8
  store ptr %0, ptr %3, align 8
  store i64 %1, ptr %4, align 8
  %6 = load ptr, ptr %3, align 8
  %7 = load ptr, ptr %6, align 8
  store ptr %7, ptr %5, align 8
  %8 = load ptr, ptr %5, align 8
  %9 = icmp eq ptr %8, null
  br i1 %9, label %10, label %11

10:                                               ; preds = %2
  br label %26

11:                                               ; preds = %2
  %12 = load i64, ptr %4, align 8
  %13 = icmp ugt i64 360, %12
  br i1 %13, label %14, label %24

14:                                               ; preds = %11
  %15 = load ptr, ptr %3, align 8
  store ptr null, ptr %15, align 8
  %16 = load ptr, ptr %5, align 8
  call void @free(ptr noundef %16) #13
  %17 = call noalias ptr @png_malloc_base(ptr noundef null, i64 noundef 360)
  store ptr %17, ptr %5, align 8
  %18 = load ptr, ptr %5, align 8
  %19 = icmp eq ptr %18, null
  br i1 %19, label %20, label %21

20:                                               ; preds = %14
  br label %26

21:                                               ; preds = %14
  %22 = load ptr, ptr %5, align 8
  %23 = load ptr, ptr %3, align 8
  store ptr %22, ptr %23, align 8
  br label %24

24:                                               ; preds = %21, %11
  %25 = load ptr, ptr %5, align 8
  call void @llvm.memset.p0.i64(ptr align 8 %25, i8 0, i64 360, i1 false)
  br label %26

26:                                               ; preds = %24, %20, %10
  ret void
}