; Function Attrs: nounwind uwtable
define void @png_info_init_3(ptr nocapture noundef %0, i64 noundef %1) local_unnamed_addr #0 {
  %3 = load ptr, ptr %0, align 8
  %4 = icmp eq ptr %3, null
  br i1 %4, label %12, label %5

5:                                                ; preds = %2
  %6 = icmp ult i64 %1, 360
  br i1 %6, label %7, label %11

7:                                                ; preds = %5
  store ptr null, ptr %0, align 8
  tail call void @free(ptr noundef nonnull %3) #29
  %8 = tail call noalias ptr @png_malloc_base(ptr noundef null, i64 noundef 360) #29
  %9 = icmp eq ptr %8, null
  br i1 %9, label %12, label %10

10:                                               ; preds = %7
  store ptr %8, ptr %0, align 8
  br label %11

11:                                               ; preds = %10, %5
  %.0 = phi ptr [ %8, %10 ], [ %3, %5 ]
  tail call void @llvm.memset.p0.i64(ptr noundef nonnull align 8 dereferenceable(360) %.0, i8 0, i64 360, i1 false)
  br label %12

12:                                               ; preds = %7, %2, %11
  ret void
}